target datalayout = "e-m:e-p270:32:32-p271:32:32-p272:64:64-i64:64-i128:128-f80:128-n8:16:32:64-S128"
target triple = "x86_64-pc-linux-gnu"

; Function Attrs: nounwind uwtable
define i32 @png_crc_finish(ptr noalias noundef %0, i32 noundef %1) #0 {
  %3 = alloca ptr, align 8
  %4 = alloca i32, align 4
  store ptr %0, ptr %3, align 8, !tbaa !3
  store i32 %1, ptr %4, align 4, !tbaa !11
  %5 = load ptr, ptr %3, align 8, !tbaa !3
  %6 = load i32, ptr %4, align 4, !tbaa !11
  %7 = call i32 @png_crc_finish_critical(ptr noundef %5, i32 noundef %6, i32 noundef 0)
  ret i32 %7
}

; Function Attrs: nounwind uwtable
define void @png_crc_read(ptr noalias noundef %0, ptr noundef %1, i32 noundef %2) #0 {
  %4 = alloca ptr, align 8
  %5 = alloca ptr, align 8
  %6 = alloca i32, align 4
  store ptr %0, ptr %4, align 8, !tbaa !3
  store ptr %1, ptr %5, align 8, !tbaa !8
  store i32 %2, ptr %6, align 4, !tbaa !11
  %7 = load ptr, ptr %4, align 8, !tbaa !3
  %8 = icmp eq ptr %7, null
  br i1 %8, label %9, label %10

9:                                                ; preds = %3
  br label %19

10:                                               ; preds = %3
  %11 = load ptr, ptr %4, align 8, !tbaa !3
  %12 = load ptr, ptr %5, align 8, !tbaa !8
  %13 = load i32, ptr %6, align 4, !tbaa !11
  %14 = zext i32 %13 to i64
  call void @png_read_data(ptr noundef %11, ptr noundef %12, i64 noundef %14)
  %15 = load ptr, ptr %4, align 8, !tbaa !3
  %16 = load ptr, ptr %5, align 8, !tbaa !8
  %17 = load i32, ptr %6, align 4, !tbaa !11
  %18 = zext i32 %17 to i64
  call void @png_calculate_crc(ptr noundef %15, ptr noundef %16, i64 noundef %18)
  br label %19

19:                                               ; preds = %10, %9
  ret void
}

; Function Attrs: nounwind uwtable
define internal i32 @png_handle_pHYs(ptr noalias noundef %0, ptr noalias noundef %1, i32 noundef %2) #0 {
  %4 = alloca i32, align 4
  %5 = alloca ptr, align 8
  %6 = alloca ptr, align 8
  %7 = alloca i32, align 4
  %8 = alloca [9 x i8], align 1
  %9 = alloca i32, align 4
  %10 = alloca i32, align 4
  %11 = alloca i32, align 4
  %12 = alloca i32, align 4
  store ptr %0, ptr %5, align 8, !tbaa !3
  store ptr %1, ptr %6, align 8, !tbaa !13
  store i32 %2, ptr %7, align 4, !tbaa !11
  call void @llvm.lifetime.start.p0(i64 9, ptr %8) #7
  call void @llvm.lifetime.start.p0(i64 4, ptr %9) #7
  call void @llvm.lifetime.start.p0(i64 4, ptr %10) #7
  call void @llvm.lifetime.start.p0(i64 4, ptr %11) #7
  %13 = load ptr, ptr %5, align 8, !tbaa !3
  %14 = getelementptr inbounds [9 x i8], ptr %8, i64 0, i64 0
  call void @png_crc_read(ptr noundef %13, ptr noundef %14, i32 noundef 9)
  %15 = load ptr, ptr %5, align 8, !tbaa !3
  %16 = call i32 @png_crc_finish(ptr noundef %15, i32 noundef 0)
  %17 = icmp ne i32 %16, 0
  br i1 %17, label %18, label %19

18:                                               ; preds = %3
  store i32 0, ptr %4, align 4
  store i32 1, ptr %12, align 4
  br label %74

19:                                               ; preds = %3
  %20 = getelementptr inbounds [9 x i8], ptr %8, i64 0, i64 0
  %21 = load i8, ptr %20, align 1, !tbaa !10
  %22 = zext i8 %21 to i32
  %23 = shl i32 %22, 24
  %24 = getelementptr inbounds [9 x i8], ptr %8, i64 0, i64 0
  %25 = getelementptr inbounds i8, ptr %24, i64 1
  %26 = load i8, ptr %25, align 1, !tbaa !10
  %27 = zext i8 %26 to i32
  %28 = shl i32 %27, 16
  %29 = add i32 %23, %28
  %30 = getelementptr inbounds [9 x i8], ptr %8, i64 0, i64 0
  %31 = getelementptr inbounds i8, ptr %30, i64 2
  %32 = load i8, ptr %31, align 1, !tbaa !10
  %33 = zext i8 %32 to i32
  %34 = shl i32 %33, 8
  %35 = add i32 %29, %34
  %36 = getelementptr inbounds [9 x i8], ptr %8, i64 0, i64 0
  %37 = getelementptr inbounds i8, ptr %36, i64 3
  %38 = load i8, ptr %37, align 1, !tbaa !10
  %39 = zext i8 %38 to i32
  %40 = add i32 %35, %39
  store i32 %40, ptr %9, align 4, !tbaa !11
  %41 = getelementptr inbounds [9 x i8], ptr %8, i64 0, i64 0
  %42 = getelementptr inbounds i8, ptr %41, i64 4
  %43 = load i8, ptr %42, align 1, !tbaa !10
  %44 = zext i8 %43 to i32
  %45 = shl i32 %44, 24
  %46 = getelementptr inbounds [9 x i8], ptr %8, i64 0, i64 0
  %47 = getelementptr inbounds i8, ptr %46, i64 4
  %48 = getelementptr inbounds i8, ptr %47, i64 1
  %49 = load i8, ptr %48, align 1, !tbaa !10
  %50 = zext i8 %49 to i32
  %51 = shl i32 %50, 16
  %52 = add i32 %45, %51
  %53 = getelementptr inbounds [9 x i8], ptr %8, i64 0, i64 0
  %54 = getelementptr inbounds i8, ptr %53, i64 4
  %55 = getelementptr inbounds i8, ptr %54, i64 2
  %56 = load i8, ptr %55, align 1, !tbaa !10
  %57 = zext i8 %56 to i32
  %58 = shl i32 %57, 8
  %59 = add i32 %52, %58
  %60 = getelementptr inbounds [9 x i8], ptr %8, i64 0, i64 0
  %61 = getelementptr inbounds i8, ptr %60, i64 4
  %62 = getelementptr inbounds i8, ptr %61, i64 3
  %63 = load i8, ptr %62, align 1, !tbaa !10
  %64 = zext i8 %63 to i32
  %65 = add i32 %59, %64
  store i32 %65, ptr %10, align 4, !tbaa !11
  %66 = getelementptr inbounds [9 x i8], ptr %8, i64 0, i64 8
  %67 = load i8, ptr %66, align 1, !tbaa !10
  %68 = zext i8 %67 to i32
  store i32 %68, ptr %11, align 4, !tbaa !11
  %69 = load ptr, ptr %5, align 8, !tbaa !3
  %70 = load ptr, ptr %6, align 8, !tbaa !13
  %71 = load i32, ptr %9, align 4, !tbaa !11
  %72 = load i32, ptr %10, align 4, !tbaa !11
  %73 = load i32, ptr %11, align 4, !tbaa !11
  call void @png_set_pHYs(ptr noundef %69, ptr noundef %70, i32 noundef %71, i32 noundef %72, i32 noundef %73)
  store i32 3, ptr %4, align 4
  store i32 1, ptr %12, align 4
  br label %74

74:                                               ; preds = %19, %18
  call void @llvm.lifetime.end.p0(i64 4, ptr %11) #7
  call void @llvm.lifetime.end.p0(i64 4, ptr %10) #7
  call void @llvm.lifetime.end.p0(i64 4, ptr %9) #7
  call void @llvm.lifetime.end.p0(i64 9, ptr %8) #7
  %75 = load i32, ptr %4, align 4
  ret i32 %75
}