; Function Attrs: nounwind uwtable
define internal range(i32 0, 4) i32 @png_handle_pHYs(ptr noalias noundef %0, ptr noalias noundef %1, i32 %2) #0 {
  %4 = alloca [9 x i8], align 1
  call void @llvm.lifetime.start.p0(i64 9, ptr nonnull %4) #12
  %5 = icmp eq ptr %0, null
  br i1 %5, label %png_crc_read.exit, label %6

6:                                                ; preds = %3
  call void @png_read_data(ptr noundef nonnull %0, ptr noundef nonnull %4, i64 noundef 9) #12
  call void @png_calculate_crc(ptr noundef nonnull %0, ptr noundef nonnull %4, i64 noundef 9) #12
  br label %png_crc_read.exit

png_crc_read.exit:                                ; preds = %3, %6
  %7 = call fastcc range(i32 0, 2) i32 @png_crc_finish_critical(ptr noundef %0, i32 noundef 0, i32 noundef 0)
  %.not = icmp eq i32 %7, 0
  br i1 %.not, label %8, label %47

8:                                                ; preds = %png_crc_read.exit
  %9 = load i8, ptr %4, align 1, !tbaa !3
  %10 = zext i8 %9 to i32
  %11 = shl nuw i32 %10, 24
  %12 = getelementptr inbounds nuw i8, ptr %4, i64 1
  %13 = load i8, ptr %12, align 1, !tbaa !3
  %14 = zext i8 %13 to i32
  %15 = shl nuw nsw i32 %14, 16
  %16 = or disjoint i32 %15, %11
  %17 = getelementptr inbounds nuw i8, ptr %4, i64 2
  %18 = load i8, ptr %17, align 1, !tbaa !3
  %19 = zext i8 %18 to i32
  %20 = shl nuw nsw i32 %19, 8
  %21 = or disjoint i32 %16, %20
  %22 = getelementptr inbounds nuw i8, ptr %4, i64 3
  %23 = load i8, ptr %22, align 1, !tbaa !3
  %24 = zext i8 %23 to i32
  %25 = or disjoint i32 %21, %24
  %26 = getelementptr inbounds nuw i8, ptr %4, i64 4
  %27 = load i8, ptr %26, align 1, !tbaa !3
  %28 = zext i8 %27 to i32
  %29 = shl nuw i32 %28, 24
  %30 = getelementptr inbounds nuw i8, ptr %4, i64 5
  %31 = load i8, ptr %30, align 1, !tbaa !3
  %32 = zext i8 %31 to i32
  %33 = shl nuw nsw i32 %32, 16
  %34 = or disjoint i32 %33, %29
  %35 = getelementptr inbounds nuw i8, ptr %4, i64 6
  %36 = load i8, ptr %35, align 1, !tbaa !3
  %37 = zext i8 %36 to i32
  %38 = shl nuw nsw i32 %37, 8
  %39 = or disjoint i32 %34, %38
  %40 = getelementptr inbounds nuw i8, ptr %4, i64 7
  %41 = load i8, ptr %40, align 1, !tbaa !3
  %42 = zext i8 %41 to i32
  %43 = or disjoint i32 %39, %42
  %44 = getelementptr inbounds nuw i8, ptr %4, i64 8
  %45 = load i8, ptr %44, align 1, !tbaa !3
  %46 = zext i8 %45 to i32
  call void @png_set_pHYs(ptr noundef %0, ptr noundef %1, i32 noundef %25, i32 noundef %43, i32 noundef %46) #12
  br label %47

47:                                               ; preds = %png_crc_read.exit, %8
  %.0 = phi i32 [ 3, %8 ], [ 0, %png_crc_read.exit ]
  call void @llvm.lifetime.end.p0(i64 9, ptr nonnull %4) #12
  ret i32 %.0
}